; Function Attrs: nounwind uwtable
define hidden i32 @X509_ATTRIBUTE_count(ptr noundef readonly captures(none) %0) local_unnamed_addr #0 {
  %2 = getelementptr inbounds nuw i8, ptr %0, i64 8
  %3 = load i32, ptr %2, align 8, !tbaa !19
  %.not = icmp eq i32 %3, 0
  %4 = getelementptr inbounds nuw i8, ptr %0, i64 16
  %5 = load ptr, ptr %4, align 8, !tbaa !20
  br i1 %.not, label %6, label %9

6:                                                ; preds = %1
  %7 = tail call i64 @sk_num(ptr noundef %5) #4
  %8 = trunc i64 %7 to i32
  br label %10

9:                                                ; preds = %1
  %.not3 = icmp ne ptr %5, null
  %. = zext i1 %.not3 to i32
  br label %10

10:                                               ; preds = %9, %6
  %.0 = phi i32 [ %8, %6 ], [ %., %9 ]
  ret i32 %.0
}